target datalayout = "e-m:e-p270:32:32-p271:32:32-p272:64:64-i64:64-i128:128-f80:128-n8:16:32:64-S128"
target triple = "x86_64-pc-linux-gnu"

%struct.QemuMutex = type { %union.pthread_mutex_t, i8 }
%union.pthread_mutex_t = type { %struct.__pthread_mutex_s }
%struct.__pthread_mutex_s = type { i32, i32, i32, i32, i32, i16, i16, %struct.__pthread_internal_list }
%struct.__pthread_internal_list = type { ptr, ptr }
%struct.Job = type { ptr, ptr, ptr, i8, i8, ptr, ptr, %struct.ProgressMeter, ptr, i32, i32, %struct.QEMUTimer, i32, i8, i8, i8, i8, i8, i8, i32, ptr, %struct.NotifierList, %struct.NotifierList, %struct.NotifierList, %struct.NotifierList, %struct.NotifierList, %struct.anon.1, ptr, %struct.anon.2 }
%struct.ProgressMeter = type { i64, i64, %struct.QemuMutex }
%struct.QEMUTimer = type { i64, ptr, ptr, ptr, ptr, i32, i32 }
%struct.NotifierList = type { %struct.anon.0 }
%struct.anon.0 = type { ptr }
%struct.anon.1 = type { ptr, ptr }
%struct.anon.2 = type { ptr, ptr }

@.str = private unnamed_addr constant [14 x i8] c"../qemu/job.c\00", align 1
@.str.23 = private unnamed_addr constant [15 x i8] c"job && job->id\00", align 1
@__PRETTY_FUNCTION__.job_finalize_locked = private unnamed_addr constant [42 x i8] c"void job_finalize_locked(Job *, Error **)\00", align 1

; Function Attrs: nounwind sspstrong uwtable
define dso_local void @job_finalize_locked(ptr noundef %0, ptr noundef %1) #0 {
  %3 = alloca ptr, align 8
  %4 = alloca ptr, align 8
  store ptr %0, ptr %3, align 8
  store ptr %1, ptr %4, align 8
  %5 = load ptr, ptr %3, align 8
  %6 = icmp ne ptr %5, null
  br i1 %6, label %7, label %13

7:                                                ; preds = %2
  %8 = load ptr, ptr %3, align 8
  %9 = getelementptr inbounds nuw %struct.Job, ptr %8, i32 0, i32 0
  %10 = load ptr, ptr %9, align 8
  %11 = icmp ne ptr %10, null
  br i1 %11, label %12, label %13

12:                                               ; preds = %7
  br label %14

13:                                               ; preds = %7, %2
  call void @__assert_fail(ptr noundef @.str.23, ptr noundef @.str, i32 noundef 1006, ptr noundef @__PRETTY_FUNCTION__.job_finalize_locked) #20
  unreachable

14:                                               ; preds = %12
  %15 = load ptr, ptr %3, align 8
  %16 = load ptr, ptr %4, align 8
  %17 = call i32 @job_apply_verb_locked(ptr noundef %15, i32 noundef 6, ptr noundef %16)
  %18 = icmp ne i32 %17, 0
  br i1 %18, label %19, label %20

19:                                               ; preds = %14
  br label %22

20:                                               ; preds = %14
  %21 = load ptr, ptr %3, align 8
  call void @job_do_finalize_locked(ptr noundef %21)
  br label %22

22:                                               ; preds = %20, %19
  ret void
}