; Function Attrs: nounwind sspstrong uwtable
define dso_local void @job_finalize_locked(ptr noundef %0, ptr noundef %1) local_unnamed_addr #0 {
  %.not = icmp eq ptr %0, null
  br i1 %.not, label %5, label %3

3:                                                ; preds = %2
  %4 = load ptr, ptr %0, align 8
  %.not5 = icmp eq ptr %4, null
  br i1 %.not5, label %5, label %6

5:                                                ; preds = %3, %2
  tail call void @__assert_fail(ptr noundef nonnull @.str.23, ptr noundef nonnull @.str, i32 noundef 1006, ptr noundef nonnull @__PRETTY_FUNCTION__.job_finalize_locked) #17
  unreachable

6:                                                ; preds = %3
  %7 = tail call i32 @job_apply_verb_locked(ptr noundef nonnull %0, i32 noundef 6, ptr noundef %1)
  %.not6 = icmp eq i32 %7, 0
  br i1 %.not6, label %8, label %9

8:                                                ; preds = %6
  tail call fastcc void @job_do_finalize_locked(ptr noundef %0)
  br label %9

9:                                                ; preds = %6, %8
  ret void
}